; Function Attrs: mustprogress uwtable
define hidden void @_ZN3euf6plugin10push_mergeEPNS_5enodeES2_(ptr nocapture noundef nonnull readonly align 8 dereferenceable(16) %this, ptr noundef %a, ptr noundef %b) local_unnamed_addr #3 align 2 {
entry:
  %g = getelementptr inbounds i8, ptr %this, i64 8
  %0 = load ptr, ptr %g, align 8
  %m_to_merge.i = getelementptr inbounds i8, ptr %0, i64 8
  %1 = load ptr, ptr %m_to_merge.i, align 8
  %cmp.i.i = icmp eq ptr %1, null
  br i1 %cmp.i.i, label %if.then.i.i, label %lor.lhs.false.i.i

lor.lhs.false.i.i:                                ; preds = %entry
  %arrayidx.i.i = getelementptr inbounds i8, ptr %1, i64 -4
  %2 = load i32, ptr %arrayidx.i.i, align 4
  %arrayidx4.i.i = getelementptr inbounds i8, ptr %1, i64 -8
  %3 = load i32, ptr %arrayidx4.i.i, align 4
  %cmp5.i.i = icmp eq i32 %2, %3
  br i1 %cmp5.i.i, label %if.then.i.i, label %_ZN3euf6egraph10push_mergeEPNS_5enodeES2_NS_13justificationE.exit

if.then.i.i:                                      ; preds = %lor.lhs.false.i.i, %entry
  tail call void @_ZN6vectorIN3euf6egraph8to_mergeELb0EjE13expand_vectorEv(ptr noundef nonnull align 8 dereferenceable(8) %m_to_merge.i)
  %.pre.i.i = load ptr, ptr %m_to_merge.i, align 8
  %arrayidx8.phi.trans.insert.i.i = getelementptr inbounds i8, ptr %.pre.i.i, i64 -4
  %.pre1.i.i = load i32, ptr %arrayidx8.phi.trans.insert.i.i, align 4
  br label %_ZN3euf6egraph10push_mergeEPNS_5enodeES2_NS_13justificationE.exit

_ZN3euf6egraph10push_mergeEPNS_5enodeES2_NS_13justificationE.exit: ; preds = %lor.lhs.false.i.i, %if.then.i.i
  %4 = phi i32 [ %.pre1.i.i, %if.then.i.i ], [ %2, %lor.lhs.false.i.i ]
  %5 = phi ptr [ %.pre.i.i, %if.then.i.i ], [ %1, %lor.lhs.false.i.i ]
  %idx.ext.i.i = zext i32 %4 to i64
  %add.ptr.i.i = getelementptr inbounds %"struct.euf::egraph::to_merge", ptr %5, i64 %idx.ext.i.i
  store ptr %a, ptr %add.ptr.i.i, align 8
  %ref.tmp.sroa.2.0.add.ptr.i.sroa_idx.i = getelementptr inbounds i8, ptr %add.ptr.i.i, i64 8
  store ptr %b, ptr %ref.tmp.sroa.2.0.add.ptr.i.sroa_idx.i, align 8
  %ref.tmp.sroa.3.0.add.ptr.i.sroa_idx.i = getelementptr inbounds i8, ptr %add.ptr.i.i, i64 16
  store i32 2, ptr %ref.tmp.sroa.3.0.add.ptr.i.sroa_idx.i, align 8
  %ref.tmp.sroa.4.i.sroa.3.0.ref.tmp.sroa.4.0.add.ptr.i.sroa_idx.i.sroa_idx = getelementptr inbounds i8, ptr %add.ptr.i.i, i64 24
  store i32 0, ptr %ref.tmp.sroa.4.i.sroa.3.0.ref.tmp.sroa.4.0.add.ptr.i.sroa_idx.i.sroa_idx, align 4
  %ref.tmp.sroa.4.i.sroa.5.0.ref.tmp.sroa.4.0.add.ptr.i.sroa_idx.i.sroa_idx = getelementptr inbounds i8, ptr %add.ptr.i.i, i64 32
  store i8 0, ptr %ref.tmp.sroa.4.i.sroa.5.0.ref.tmp.sroa.4.0.add.ptr.i.sroa_idx.i.sroa_idx, align 4
  %ref.tmp.sroa.4.i.sroa.7.0.ref.tmp.sroa.4.0.add.ptr.i.sroa_idx.i.sroa_idx = getelementptr inbounds i8, ptr %add.ptr.i.i, i64 40
  store ptr null, ptr %ref.tmp.sroa.4.i.sroa.7.0.ref.tmp.sroa.4.0.add.ptr.i.sroa_idx.i.sroa_idx, align 4
  %6 = load ptr, ptr %m_to_merge.i, align 8
  %arrayidx10.i.i = getelementptr inbounds i8, ptr %6, i64 -4
  %7 = load i32, ptr %arrayidx10.i.i, align 4
  %inc.i.i = add i32 %7, 1
  store i32 %inc.i.i, ptr %arrayidx10.i.i, align 4
  ret void
}